target datalayout = "e-m:e-p270:32:32-p271:32:32-p272:64:64-i64:64-i128:128-f80:128-n8:16:32:64-S128"
target triple = "x86_64-pc-linux-gnu"

%struct.Ssw_Man_t_ = type { ptr, i32, ptr, ptr, ptr, ptr, i32, ptr, ptr, ptr, i32, i32, i32, i32, i32, i32, i32, i32, i32, i32, i32, ptr, i32, ptr, i32, i32, i32, i32, ptr, ptr, ptr, i32, ptr, i32, i32, ptr, ptr, ptr, i32, ptr, i32, i32, i32, i32, i32, i32, i32, i32, i32, i32, i32, i32, i32, i32, i32, i32, i32, i32, i32, i32, i32, i32, i64, i64, i64, i64, i64, i64, i64, i64, i64, i64 }
%struct.Aig_Obj_t_ = type { %union.anon, ptr, ptr, i64, i32, i32, %union.anon.0 }
%union.anon = type { ptr }
%union.anon.0 = type { ptr }
%struct.Aig_Man_t_ = type { ptr, ptr, ptr, ptr, ptr, ptr, ptr, %struct.Aig_Obj_t_, i32, i32, i32, i32, i32, i32, [7 x i32], i32, ptr, i32, ptr, i32, ptr, i32, i32, i32, ptr, i32, i32, i32, i32, i32, ptr, ptr, i32, ptr, ptr, i32, ptr, ptr, i32, i32, i32, ptr, ptr, ptr, ptr, ptr, ptr, ptr, ptr, ptr, ptr, ptr, ptr, ptr, ptr, i32, ptr, ptr, ptr, ptr, i32, i64, i64, i64, ptr, ptr }
%struct.Vec_Ptr_t_ = type { i32, i32, ptr }

; Function Attrs: inlinehint nounwind uwtable
define internal ptr @Ssw_ObjFrame(ptr noundef %0, ptr noundef %1, i32 noundef %2) #2 {
  %4 = alloca ptr, align 8
  %5 = alloca ptr, align 8
  %6 = alloca i32, align 4
  store ptr %0, ptr %4, align 8, !tbaa !3
  store ptr %1, ptr %5, align 8, !tbaa !32
  store i32 %2, ptr %6, align 4, !tbaa !21
  %7 = load ptr, ptr %4, align 8, !tbaa !3
  %8 = getelementptr inbounds nuw %struct.Ssw_Man_t_, ptr %7, i32 0, i32 4
  %9 = load ptr, ptr %8, align 8, !tbaa !43
  %10 = load ptr, ptr %4, align 8, !tbaa !3
  %11 = getelementptr inbounds nuw %struct.Ssw_Man_t_, ptr %10, i32 0, i32 1
  %12 = load i32, ptr %11, align 8, !tbaa !22
  %13 = load ptr, ptr %5, align 8, !tbaa !32
  %14 = getelementptr inbounds nuw %struct.Aig_Obj_t_, ptr %13, i32 0, i32 5
  %15 = load i32, ptr %14, align 4, !tbaa !44
  %16 = mul nsw i32 %12, %15
  %17 = load i32, ptr %6, align 4, !tbaa !21
  %18 = add nsw i32 %16, %17
  %19 = sext i32 %18 to i64
  %20 = getelementptr inbounds ptr, ptr %9, i64 %19
  %21 = load ptr, ptr %20, align 8, !tbaa !32
  ret ptr %21
}

; Function Attrs: inlinehint nounwind uwtable
define internal ptr @Vec_PtrEntry(ptr noundef %0, i32 noundef %1) #2 {
  %3 = alloca ptr, align 8
  %4 = alloca i32, align 4
  store ptr %0, ptr %3, align 8, !tbaa !39
  store i32 %1, ptr %4, align 4, !tbaa !21
  %5 = load ptr, ptr %3, align 8, !tbaa !39
  %6 = getelementptr inbounds nuw %struct.Vec_Ptr_t_, ptr %5, i32 0, i32 2
  %7 = load ptr, ptr %6, align 8, !tbaa !40
  %8 = load i32, ptr %4, align 4, !tbaa !21
  %9 = sext i32 %8 to i64
  %10 = getelementptr inbounds ptr, ptr %7, i64 %9
  %11 = load ptr, ptr %10, align 8, !tbaa !42
  ret ptr %11
}

; Function Attrs: inlinehint nounwind uwtable
define internal i32 @Saig_ManPiNum(ptr noundef %0) #2 {
  %2 = alloca ptr, align 8
  store ptr %0, ptr %2, align 8, !tbaa !36
  %3 = load ptr, ptr %2, align 8, !tbaa !36
  %4 = getelementptr inbounds nuw %struct.Aig_Man_t_, ptr %3, i32 0, i32 9
  %5 = load i32, ptr %4, align 4, !tbaa !38
  ret i32 %5
}

; Function Attrs: inlinehint nounwind uwtable
define internal ptr @Aig_ManConst1(ptr noundef %0) #2 {
  %2 = alloca ptr, align 8
  store ptr %0, ptr %2, align 8, !tbaa !36
  %3 = load ptr, ptr %2, align 8, !tbaa !36
  %4 = getelementptr inbounds nuw %struct.Aig_Man_t_, ptr %3, i32 0, i32 6
  %5 = load ptr, ptr %4, align 8, !tbaa !37
  ret ptr %5
}

; Function Attrs: nounwind uwtable
define void @Ssw_ManLabelPiNodes(ptr noundef %0) #0 {
  %2 = alloca ptr, align 8
  %3 = alloca ptr, align 8
  %4 = alloca ptr, align 8
  %5 = alloca i32, align 4
  %6 = alloca i32, align 4
  store ptr %0, ptr %2, align 8, !tbaa !3
  call void @llvm.lifetime.start.p0(i64 8, ptr %3) #8
  call void @llvm.lifetime.start.p0(i64 8, ptr %4) #8
  call void @llvm.lifetime.start.p0(i64 4, ptr %5) #8
  call void @llvm.lifetime.start.p0(i64 4, ptr %6) #8
  %7 = load ptr, ptr %2, align 8, !tbaa !3
  %8 = getelementptr inbounds nuw %struct.Ssw_Man_t_, ptr %7, i32 0, i32 3
  %9 = load ptr, ptr %8, align 8, !tbaa !8
  %10 = call ptr @Aig_ManConst1(ptr noundef %9)
  %11 = getelementptr inbounds nuw %struct.Aig_Obj_t_, ptr %10, i32 0, i32 3
  %12 = load i64, ptr %11, align 8
  %13 = and i64 %12, -17
  %14 = or i64 %13, 16
  store i64 %14, ptr %11, align 8
  %15 = load ptr, ptr %2, align 8, !tbaa !3
  %16 = getelementptr inbounds nuw %struct.Ssw_Man_t_, ptr %15, i32 0, i32 3
  %17 = load ptr, ptr %16, align 8, !tbaa !8
  %18 = call ptr @Aig_ManConst1(ptr noundef %17)
  %19 = getelementptr inbounds nuw %struct.Aig_Obj_t_, ptr %18, i32 0, i32 3
  %20 = load i64, ptr %19, align 8
  %21 = and i64 %20, -33
  %22 = or i64 %21, 32
  store i64 %22, ptr %19, align 8
  store i32 0, ptr %5, align 4, !tbaa !21
  br label %23

23:                                               ; preds = %66, %1
  %24 = load i32, ptr %5, align 4, !tbaa !21
  %25 = load ptr, ptr %2, align 8, !tbaa !3
  %26 = getelementptr inbounds nuw %struct.Ssw_Man_t_, ptr %25, i32 0, i32 1
  %27 = load i32, ptr %26, align 8, !tbaa !22
  %28 = icmp slt i32 %24, %27
  br i1 %28, label %29, label %69

29:                                               ; preds = %23
  store i32 0, ptr %6, align 4, !tbaa !21
  br label %30

30:                                               ; preds = %62, %29
  %31 = load i32, ptr %6, align 4, !tbaa !21
  %32 = load ptr, ptr %2, align 8, !tbaa !3
  %33 = getelementptr inbounds nuw %struct.Ssw_Man_t_, ptr %32, i32 0, i32 2
  %34 = load ptr, ptr %33, align 8, !tbaa !23
  %35 = call i32 @Saig_ManPiNum(ptr noundef %34)
  %36 = icmp slt i32 %31, %35
  br i1 %36, label %37, label %45

37:                                               ; preds = %30
  %38 = load ptr, ptr %2, align 8, !tbaa !3
  %39 = getelementptr inbounds nuw %struct.Ssw_Man_t_, ptr %38, i32 0, i32 2
  %40 = load ptr, ptr %39, align 8, !tbaa !23
  %41 = getelementptr inbounds nuw %struct.Aig_Man_t_, ptr %40, i32 0, i32 2
  %42 = load ptr, ptr %41, align 8, !tbaa !24
  %43 = load i32, ptr %6, align 4, !tbaa !21
  %44 = call ptr @Vec_PtrEntry(ptr noundef %42, i32 noundef %43)
  store ptr %44, ptr %3, align 8, !tbaa !32
  br label %45

45:                                               ; preds = %37, %30
  %46 = phi i1 [ false, %30 ], [ true, %37 ]
  br i1 %46, label %47, label %65

47:                                               ; preds = %45
  %48 = load ptr, ptr %2, align 8, !tbaa !3
  %49 = load ptr, ptr %3, align 8, !tbaa !32
  %50 = load i32, ptr %5, align 4, !tbaa !21
  %51 = call ptr @Ssw_ObjFrame(ptr noundef %48, ptr noundef %49, i32 noundef %50)
  store ptr %51, ptr %4, align 8, !tbaa !32
  %52 = load ptr, ptr %4, align 8, !tbaa !32
  %53 = getelementptr inbounds nuw %struct.Aig_Obj_t_, ptr %52, i32 0, i32 3
  %54 = load i64, ptr %53, align 8
  %55 = and i64 %54, -17
  %56 = or i64 %55, 16
  store i64 %56, ptr %53, align 8
  %57 = load ptr, ptr %4, align 8, !tbaa !32
  %58 = getelementptr inbounds nuw %struct.Aig_Obj_t_, ptr %57, i32 0, i32 3
  %59 = load i64, ptr %58, align 8
  %60 = and i64 %59, -33
  %61 = or i64 %60, 32
  store i64 %61, ptr %58, align 8
  br label %62

62:                                               ; preds = %47
  %63 = load i32, ptr %6, align 4, !tbaa !21
  %64 = add nsw i32 %63, 1
  store i32 %64, ptr %6, align 4, !tbaa !21
  br label %30, !llvm.loop !33

65:                                               ; preds = %45
  br label %66

66:                                               ; preds = %65
  %67 = load i32, ptr %5, align 4, !tbaa !21
  %68 = add nsw i32 %67, 1
  store i32 %68, ptr %5, align 4, !tbaa !21
  br label %23, !llvm.loop !35

69:                                               ; preds = %23
  call void @llvm.lifetime.end.p0(i64 4, ptr %6) #8
  call void @llvm.lifetime.end.p0(i64 4, ptr %5) #8
  call void @llvm.lifetime.end.p0(i64 8, ptr %4) #8
  call void @llvm.lifetime.end.p0(i64 8, ptr %3) #8
  ret void
}