; Function Attrs: nofree norecurse nosync nounwind memory(readwrite, inaccessiblemem: none) uwtable
define void @Ssw_ManLabelPiNodes(ptr noundef readonly captures(none) %0) local_unnamed_addr #0 {
  %2 = getelementptr inbounds nuw i8, ptr %0, i64 24
  %3 = load ptr, ptr %2, align 8, !tbaa !3
  %4 = getelementptr i8, ptr %3, i64 48
  %.val = load ptr, ptr %4, align 8, !tbaa !19
  %5 = getelementptr inbounds nuw i8, ptr %.val, i64 24
  %6 = load i64, ptr %5, align 8
  %7 = or i64 %6, 16
  store i64 %7, ptr %5, align 8
  %8 = load ptr, ptr %2, align 8, !tbaa !3
  %9 = getelementptr i8, ptr %8, i64 48
  %.val15 = load ptr, ptr %9, align 8, !tbaa !19
  %10 = getelementptr inbounds nuw i8, ptr %.val15, i64 24
  %11 = load i64, ptr %10, align 8
  %12 = or i64 %11, 32
  store i64 %12, ptr %10, align 8
  %13 = getelementptr inbounds nuw i8, ptr %0, i64 8
  %14 = load i32, ptr %13, align 8, !tbaa !27
  %15 = icmp sgt i32 %14, 0
  br i1 %15, label %.preheader.lr.ph, label %._crit_edge

.preheader.lr.ph:                                 ; preds = %1
  %16 = getelementptr inbounds nuw i8, ptr %0, i64 16
  %17 = getelementptr i8, ptr %0, i64 32
  %18 = load ptr, ptr %16, align 8, !tbaa !28
  %19 = getelementptr i8, ptr %18, i64 108
  %20 = load i32, ptr %19, align 4, !tbaa !29
  %21 = icmp sgt i32 %20, 0
  br i1 %21, label %.preheader, label %._crit_edge

.preheader:                                       ; preds = %.preheader.lr.ph, %.critedge
  %22 = phi i32 [ %45, %.critedge ], [ %14, %.preheader.lr.ph ]
  %23 = phi ptr [ %46, %.critedge ], [ %18, %.preheader.lr.ph ]
  %.01423 = phi i32 [ %47, %.critedge ], [ 0, %.preheader.lr.ph ]
  %24 = getelementptr i8, ptr %23, i64 108
  %.val1621 = load i32, ptr %24, align 4, !tbaa !29
  %25 = icmp sgt i32 %.val1621, 0
  br i1 %25, label %.lr.ph, label %.critedge

.lr.ph:                                           ; preds = %.preheader, %.lr.ph
  %indvars.iv = phi i64 [ %indvars.iv.next, %.lr.ph ], [ 0, %.preheader ]
  %26 = phi ptr [ %41, %.lr.ph ], [ %23, %.preheader ]
  %27 = getelementptr inbounds nuw i8, ptr %26, i64 16
  %28 = load ptr, ptr %27, align 8, !tbaa !30
  %29 = getelementptr i8, ptr %28, i64 8
  %.val17 = load ptr, ptr %29, align 8, !tbaa !31
  %30 = getelementptr inbounds nuw ptr, ptr %.val17, i64 %indvars.iv
  %31 = load ptr, ptr %30, align 8, !tbaa !33
  %.val18 = load i32, ptr %13, align 8, !tbaa !27
  %.val19 = load ptr, ptr %17, align 8, !tbaa !34
  %32 = getelementptr i8, ptr %31, i64 36
  %.val20 = load i32, ptr %32, align 4, !tbaa !35
  %33 = mul nsw i32 %.val20, %.val18
  %34 = add nsw i32 %33, %.01423
  %35 = sext i32 %34 to i64
  %36 = getelementptr inbounds ptr, ptr %.val19, i64 %35
  %37 = load ptr, ptr %36, align 8, !tbaa !36
  %38 = getelementptr inbounds nuw i8, ptr %37, i64 24
  %39 = load i64, ptr %38, align 8
  %40 = or i64 %39, 48
  store i64 %40, ptr %38, align 8
  %indvars.iv.next = add nuw nsw i64 %indvars.iv, 1
  %41 = load ptr, ptr %16, align 8, !tbaa !28
  %42 = getelementptr i8, ptr %41, i64 108
  %.val16 = load i32, ptr %42, align 4, !tbaa !29
  %43 = sext i32 %.val16 to i64
  %44 = icmp slt i64 %indvars.iv.next, %43
  br i1 %44, label %.lr.ph, label %.critedge.loopexit, !llvm.loop !37

.critedge.loopexit:                               ; preds = %.lr.ph
  %.pre = load i32, ptr %13, align 8, !tbaa !27
  br label %.critedge

.critedge:                                        ; preds = %.critedge.loopexit, %.preheader
  %45 = phi i32 [ %.pre, %.critedge.loopexit ], [ %22, %.preheader ]
  %46 = phi ptr [ %41, %.critedge.loopexit ], [ %23, %.preheader ]
  %47 = add nuw nsw i32 %.01423, 1
  %48 = icmp slt i32 %47, %45
  br i1 %48, label %.preheader, label %._crit_edge, !llvm.loop !39

._crit_edge:                                      ; preds = %.critedge, %.preheader.lr.ph, %1
  ret void
}